target datalayout = "e-m:e-p270:32:32-p271:32:32-p272:64:64-i64:64-i128:128-f80:128-n8:16:32:64-S128"
target triple = "x86_64-pc-linux-gnu"

%struct.Aig_Man_t_ = type { ptr, ptr, ptr, ptr, ptr, ptr, ptr, %struct.Aig_Obj_t_, i32, i32, i32, i32, i32, i32, [7 x i32], i32, ptr, i32, ptr, i32, ptr, i32, i32, i32, ptr, i32, i32, i32, i32, i32, ptr, ptr, i32, ptr, ptr, i32, ptr, ptr, i32, i32, i32, ptr, ptr, ptr, ptr, ptr, ptr, ptr, ptr, ptr, ptr, ptr, ptr, ptr, ptr, i32, ptr, ptr, ptr, ptr, i32, i64, i64, i64, ptr, ptr }
%struct.Aig_Obj_t_ = type { %union.anon, ptr, ptr, i64, i32, i32, %union.anon.0 }
%union.anon = type { ptr }
%union.anon.0 = type { ptr }
%struct.Vec_Ptr_t_ = type { i32, i32, ptr }

@.str.4 = private unnamed_addr constant [2 x i8] c"\0A\00", align 1
@.str.12 = private unnamed_addr constant [24 x i8] c"Register is not found.\0A\00", align 1
@.str.13 = private unnamed_addr constant [23 x i8] c"Clock-like register: \0A\00", align 1
@.str.14 = private unnamed_addr constant [20 x i8] c"Control register: \0A\00", align 1
@.str.15 = private unnamed_addr constant [16 x i8] c"Their fanout: \0A\00", align 1
@.str.16 = private unnamed_addr constant [25 x i8] c"Fanouts of the fanout: \0A\00", align 1

; Function Attrs: inlinehint nounwind uwtable
define internal ptr @Aig_Regular(ptr noundef %0) #4 {
  %2 = alloca ptr, align 8
  store ptr %0, ptr %2, align 8, !tbaa !63
  %3 = load ptr, ptr %2, align 8, !tbaa !63
  %4 = ptrtoint ptr %3 to i64
  %5 = and i64 %4, -2
  %6 = inttoptr i64 %5 to ptr
  ret ptr %6
}

; Function Attrs: inlinehint nounwind uwtable
define internal i32 @Saig_ManPiNum(ptr noundef %0) #4 {
  %2 = alloca ptr, align 8
  store ptr %0, ptr %2, align 8, !tbaa !3
  %3 = load ptr, ptr %2, align 8, !tbaa !3
  %4 = getelementptr inbounds nuw %struct.Aig_Man_t_, ptr %3, i32 0, i32 9
  %5 = load i32, ptr %4, align 4, !tbaa !79
  ret i32 %5
}

; Function Attrs: inlinehint nounwind uwtable
define internal ptr @Aig_ObjFanin1(ptr noundef %0) #4 {
  %2 = alloca ptr, align 8
  store ptr %0, ptr %2, align 8, !tbaa !63
  %3 = load ptr, ptr %2, align 8, !tbaa !63
  %4 = getelementptr inbounds nuw %struct.Aig_Obj_t_, ptr %3, i32 0, i32 2
  %5 = load ptr, ptr %4, align 8, !tbaa !84
  %6 = call ptr @Aig_Regular(ptr noundef %5)
  ret ptr %6
}

; Function Attrs: inlinehint nounwind uwtable
define internal ptr @Aig_ObjFanin0(ptr noundef %0) #4 {
  %2 = alloca ptr, align 8
  store ptr %0, ptr %2, align 8, !tbaa !63
  %3 = load ptr, ptr %2, align 8, !tbaa !63
  %4 = getelementptr inbounds nuw %struct.Aig_Obj_t_, ptr %3, i32 0, i32 1
  %5 = load ptr, ptr %4, align 8, !tbaa !83
  %6 = call ptr @Aig_Regular(ptr noundef %5)
  ret ptr %6
}

; Function Attrs: inlinehint nounwind uwtable
define internal i32 @Aig_ObjIsNode(ptr noundef %0) #4 {
  %2 = alloca ptr, align 8
  store ptr %0, ptr %2, align 8, !tbaa !63
  %3 = load ptr, ptr %2, align 8, !tbaa !63
  %4 = getelementptr inbounds nuw %struct.Aig_Obj_t_, ptr %3, i32 0, i32 3
  %5 = load i64, ptr %4, align 8
  %6 = and i64 %5, 7
  %7 = trunc i64 %6 to i32
  %8 = icmp eq i32 %7, 5
  br i1 %8, label %16, label %9

9:                                                ; preds = %1
  %10 = load ptr, ptr %2, align 8, !tbaa !63
  %11 = getelementptr inbounds nuw %struct.Aig_Obj_t_, ptr %10, i32 0, i32 3
  %12 = load i64, ptr %11, align 8
  %13 = and i64 %12, 7
  %14 = trunc i64 %13 to i32
  %15 = icmp eq i32 %14, 6
  br label %16

16:                                               ; preds = %9, %1
  %17 = phi i1 [ true, %1 ], [ %15, %9 ]
  %18 = zext i1 %17 to i32
  ret i32 %18
}

; Function Attrs: inlinehint nounwind uwtable
define internal ptr @Vec_PtrEntry(ptr noundef %0, i32 noundef %1) #4 {
  %3 = alloca ptr, align 8
  %4 = alloca i32, align 4
  store ptr %0, ptr %3, align 8, !tbaa !33
  store i32 %1, ptr %4, align 4, !tbaa !22
  %5 = load ptr, ptr %3, align 8, !tbaa !33
  %6 = getelementptr inbounds nuw %struct.Vec_Ptr_t_, ptr %5, i32 0, i32 2
  %7 = load ptr, ptr %6, align 8, !tbaa !37
  %8 = load i32, ptr %4, align 4, !tbaa !22
  %9 = sext i32 %8 to i64
  %10 = getelementptr inbounds ptr, ptr %7, i64 %9
  %11 = load ptr, ptr %10, align 8, !tbaa !51
  ret ptr %11
}

; Function Attrs: inlinehint nounwind uwtable
define internal i32 @Vec_PtrSize(ptr noundef %0) #4 {
  %2 = alloca ptr, align 8
  store ptr %0, ptr %2, align 8, !tbaa !33
  %3 = load ptr, ptr %2, align 8, !tbaa !33
  %4 = getelementptr inbounds nuw %struct.Vec_Ptr_t_, ptr %3, i32 0, i32 1
  %5 = load i32, ptr %4, align 4, !tbaa !34
  ret i32 %5
}

; Function Attrs: inlinehint nounwind uwtable
define internal i32 @Saig_ManRegNum(ptr noundef %0) #4 {
  %2 = alloca ptr, align 8
  store ptr %0, ptr %2, align 8, !tbaa !3
  %3 = load ptr, ptr %2, align 8, !tbaa !3
  %4 = getelementptr inbounds nuw %struct.Aig_Man_t_, ptr %3, i32 0, i32 8
  %5 = load i32, ptr %4, align 8, !tbaa !23
  ret i32 %5
}

; Function Attrs: inlinehint nounwind uwtable
define internal ptr @Saig_ManLo(ptr noundef %0, i32 noundef %1) #4 {
  %3 = alloca ptr, align 8
  %4 = alloca i32, align 4
  store ptr %0, ptr %3, align 8, !tbaa !3
  store i32 %1, ptr %4, align 4, !tbaa !22
  %5 = load ptr, ptr %3, align 8, !tbaa !3
  %6 = getelementptr inbounds nuw %struct.Aig_Man_t_, ptr %5, i32 0, i32 2
  %7 = load ptr, ptr %6, align 8, !tbaa !66
  %8 = load ptr, ptr %3, align 8, !tbaa !3
  %9 = call i32 @Saig_ManPiNum(ptr noundef %8)
  %10 = load i32, ptr %4, align 4, !tbaa !22
  %11 = add nsw i32 %9, %10
  %12 = call ptr @Vec_PtrEntry(ptr noundef %7, i32 noundef %11)
  ret ptr %12
}

; Function Attrs: nounwind uwtable
define void @Saig_ManAnalizeControl(ptr noundef %0, i32 noundef %1) #0 {
  %3 = alloca ptr, align 8
  %4 = alloca i32, align 4
  %5 = alloca ptr, align 8
  %6 = alloca ptr, align 8
  %7 = alloca ptr, align 8
  %8 = alloca ptr, align 8
  %9 = alloca i32, align 4
  %10 = alloca i32, align 4
  store ptr %0, ptr %3, align 8, !tbaa !3
  store i32 %1, ptr %4, align 4, !tbaa !22
  call void @llvm.lifetime.start.p0(i64 8, ptr %5) #9
  call void @llvm.lifetime.start.p0(i64 8, ptr %6) #9
  call void @llvm.lifetime.start.p0(i64 8, ptr %7) #9
  call void @llvm.lifetime.start.p0(i64 8, ptr %8) #9
  call void @llvm.lifetime.start.p0(i64 4, ptr %9) #9
  %11 = load ptr, ptr %3, align 8, !tbaa !3
  %12 = load i32, ptr %4, align 4, !tbaa !22
  %13 = call ptr @Saig_ManLo(ptr noundef %11, i32 noundef %12)
  store ptr %13, ptr %6, align 8, !tbaa !63
  %14 = load ptr, ptr %3, align 8, !tbaa !3
  %15 = load ptr, ptr %3, align 8, !tbaa !3
  %16 = call i32 @Saig_ManRegNum(ptr noundef %15)
  %17 = sub nsw i32 %16, 1
  %18 = call ptr @Saig_ManLo(ptr noundef %14, i32 noundef %17)
  store ptr %18, ptr %7, align 8, !tbaa !63
  store ptr null, ptr %8, align 8, !tbaa !63
  store i32 0, ptr %9, align 4, !tbaa !22
  br label %19

19:                                               ; preds = %56, %2
  %20 = load i32, ptr %9, align 4, !tbaa !22
  %21 = load ptr, ptr %3, align 8, !tbaa !3
  %22 = getelementptr inbounds nuw %struct.Aig_Man_t_, ptr %21, i32 0, i32 4
  %23 = load ptr, ptr %22, align 8, !tbaa !73
  %24 = call i32 @Vec_PtrSize(ptr noundef %23)
  %25 = icmp slt i32 %20, %24
  br i1 %25, label %26, label %32

26:                                               ; preds = %19
  %27 = load ptr, ptr %3, align 8, !tbaa !3
  %28 = getelementptr inbounds nuw %struct.Aig_Man_t_, ptr %27, i32 0, i32 4
  %29 = load ptr, ptr %28, align 8, !tbaa !73
  %30 = load i32, ptr %9, align 4, !tbaa !22
  %31 = call ptr @Vec_PtrEntry(ptr noundef %29, i32 noundef %30)
  store ptr %31, ptr %5, align 8, !tbaa !63
  br label %32

32:                                               ; preds = %26, %19
  %33 = phi i1 [ false, %19 ], [ true, %26 ]
  br i1 %33, label %34, label %59

34:                                               ; preds = %32
  %35 = load ptr, ptr %5, align 8, !tbaa !63
  %36 = icmp eq ptr %35, null
  br i1 %36, label %41, label %37

37:                                               ; preds = %34
  %38 = load ptr, ptr %5, align 8, !tbaa !63
  %39 = call i32 @Aig_ObjIsNode(ptr noundef %38)
  %40 = icmp ne i32 %39, 0
  br i1 %40, label %42, label %41

41:                                               ; preds = %37, %34
  br label %55

42:                                               ; preds = %37
  %43 = load ptr, ptr %5, align 8, !tbaa !63
  %44 = call ptr @Aig_ObjFanin0(ptr noundef %43)
  %45 = load ptr, ptr %6, align 8, !tbaa !63
  %46 = icmp eq ptr %44, %45
  br i1 %46, label %47, label %54

47:                                               ; preds = %42
  %48 = load ptr, ptr %5, align 8, !tbaa !63
  %49 = call ptr @Aig_ObjFanin1(ptr noundef %48)
  %50 = load ptr, ptr %7, align 8, !tbaa !63
  %51 = icmp eq ptr %49, %50
  br i1 %51, label %52, label %54

52:                                               ; preds = %47
  %53 = load ptr, ptr %5, align 8, !tbaa !63
  store ptr %53, ptr %8, align 8, !tbaa !63
  br label %59

54:                                               ; preds = %47, %42
  br label %55

55:                                               ; preds = %54, %41
  br label %56

56:                                               ; preds = %55
  %57 = load i32, ptr %9, align 4, !tbaa !22
  %58 = add nsw i32 %57, 1
  store i32 %58, ptr %9, align 4, !tbaa !22
  br label %19, !llvm.loop !81

59:                                               ; preds = %52, %32
  %60 = load ptr, ptr %8, align 8, !tbaa !63
  %61 = icmp eq ptr %60, null
  br i1 %61, label %62, label %64

62:                                               ; preds = %59
  %63 = call i32 (ptr, ...) @printf(ptr noundef @.str.12)
  store i32 1, ptr %10, align 4
  br label %118

64:                                               ; preds = %59
  %65 = call i32 (ptr, ...) @printf(ptr noundef @.str.13)
  %66 = load ptr, ptr %3, align 8, !tbaa !3
  %67 = load ptr, ptr %6, align 8, !tbaa !63
  call void @Aig_ObjPrint(ptr noundef %66, ptr noundef %67)
  %68 = call i32 (ptr, ...) @printf(ptr noundef @.str.4)
  %69 = call i32 (ptr, ...) @printf(ptr noundef @.str.14)
  %70 = load ptr, ptr %3, align 8, !tbaa !3
  %71 = load ptr, ptr %7, align 8, !tbaa !63
  call void @Aig_ObjPrint(ptr noundef %70, ptr noundef %71)
  %72 = call i32 (ptr, ...) @printf(ptr noundef @.str.4)
  %73 = call i32 (ptr, ...) @printf(ptr noundef @.str.15)
  %74 = load ptr, ptr %3, align 8, !tbaa !3
  %75 = load ptr, ptr %8, align 8, !tbaa !63
  call void @Aig_ObjPrint(ptr noundef %74, ptr noundef %75)
  %76 = call i32 (ptr, ...) @printf(ptr noundef @.str.4)
  %77 = call i32 (ptr, ...) @printf(ptr noundef @.str.16)
  store i32 0, ptr %9, align 4, !tbaa !22
  br label %78

78:                                               ; preds = %113, %64
  %79 = load i32, ptr %9, align 4, !tbaa !22
  %80 = load ptr, ptr %3, align 8, !tbaa !3
  %81 = getelementptr inbounds nuw %struct.Aig_Man_t_, ptr %80, i32 0, i32 4
  %82 = load ptr, ptr %81, align 8, !tbaa !73
  %83 = call i32 @Vec_PtrSize(ptr noundef %82)
  %84 = icmp slt i32 %79, %83
  br i1 %84, label %85, label %91

85:                                               ; preds = %78
  %86 = load ptr, ptr %3, align 8, !tbaa !3
  %87 = getelementptr inbounds nuw %struct.Aig_Man_t_, ptr %86, i32 0, i32 4
  %88 = load ptr, ptr %87, align 8, !tbaa !73
  %89 = load i32, ptr %9, align 4, !tbaa !22
  %90 = call ptr @Vec_PtrEntry(ptr noundef %88, i32 noundef %89)
  store ptr %90, ptr %5, align 8, !tbaa !63
  br label %91

91:                                               ; preds = %85, %78
  %92 = phi i1 [ false, %78 ], [ true, %85 ]
  br i1 %92, label %93, label %116

93:                                               ; preds = %91
  %94 = load ptr, ptr %5, align 8, !tbaa !63
  %95 = icmp eq ptr %94, null
  br i1 %95, label %96, label %97

96:                                               ; preds = %93
  br label %112

97:                                               ; preds = %93
  %98 = load ptr, ptr %5, align 8, !tbaa !63
  %99 = call ptr @Aig_ObjFanin0(ptr noundef %98)
  %100 = load ptr, ptr %8, align 8, !tbaa !63
  %101 = icmp eq ptr %99, %100
  br i1 %101, label %107, label %102

102:                                              ; preds = %97
  %103 = load ptr, ptr %5, align 8, !tbaa !63
  %104 = call ptr @Aig_ObjFanin1(ptr noundef %103)
  %105 = load ptr, ptr %8, align 8, !tbaa !63
  %106 = icmp eq ptr %104, %105
  br i1 %106, label %107, label %111

107:                                              ; preds = %102, %97
  %108 = load ptr, ptr %3, align 8, !tbaa !3
  %109 = load ptr, ptr %5, align 8, !tbaa !63
  call void @Aig_ObjPrint(ptr noundef %108, ptr noundef %109)
  %110 = call i32 (ptr, ...) @printf(ptr noundef @.str.4)
  br label %111

111:                                              ; preds = %107, %102
  br label %112

112:                                              ; preds = %111, %96
  br label %113

113:                                              ; preds = %112
  %114 = load i32, ptr %9, align 4, !tbaa !22
  %115 = add nsw i32 %114, 1
  store i32 %115, ptr %9, align 4, !tbaa !22
  br label %78, !llvm.loop !82

116:                                              ; preds = %91
  %117 = call i32 (ptr, ...) @printf(ptr noundef @.str.4)
  store i32 0, ptr %10, align 4
  br label %118

118:                                              ; preds = %116, %62
  call void @llvm.lifetime.end.p0(i64 4, ptr %9) #9
  call void @llvm.lifetime.end.p0(i64 8, ptr %8) #9
  call void @llvm.lifetime.end.p0(i64 8, ptr %7) #9
  call void @llvm.lifetime.end.p0(i64 8, ptr %6) #9
  call void @llvm.lifetime.end.p0(i64 8, ptr %5) #9
  %119 = load i32, ptr %10, align 4
  switch i32 %119, label %121 [
    i32 0, label %120
    i32 1, label %120
  ]

120:                                              ; preds = %118, %118
  ret void

121:                                              ; preds = %118
  unreachable
}