; Function Attrs: nounwind uwtable
define void @Saig_ManAnalizeControl(ptr noundef %0, i32 noundef %1) local_unnamed_addr #0 {
  %3 = getelementptr i8, ptr %0, i64 16
  %.val53 = load ptr, ptr %3, align 8, !tbaa !63
  %4 = getelementptr i8, ptr %0, i64 108
  %.val54 = load i32, ptr %4, align 4, !tbaa !62
  %5 = getelementptr i8, ptr %.val53, i64 8
  %.val53.val = load ptr, ptr %5, align 8, !tbaa !28
  %6 = add nsw i32 %.val54, %1
  %7 = sext i32 %6 to i64
  %8 = getelementptr inbounds ptr, ptr %.val53.val, i64 %7
  %9 = load ptr, ptr %8, align 8, !tbaa !43
  %10 = getelementptr i8, ptr %0, i64 104
  %.val50 = load i32, ptr %10, align 8, !tbaa !14
  %11 = add i32 %.val54, -1
  %12 = add i32 %11, %.val50
  %13 = sext i32 %12 to i64
  %14 = getelementptr inbounds ptr, ptr %.val53.val, i64 %13
  %15 = load ptr, ptr %14, align 8, !tbaa !43
  %16 = getelementptr inbounds nuw i8, ptr %0, i64 32
  %17 = load ptr, ptr %16, align 8, !tbaa !68
  %18 = getelementptr i8, ptr %17, i64 4
  %.val47 = load i32, ptr %18, align 4, !tbaa !25
  %19 = icmp sgt i32 %.val47, 0
  br i1 %19, label %.lr.ph, label %._crit_edge

.lr.ph:                                           ; preds = %2
  %20 = getelementptr i8, ptr %17, i64 8
  %.val49 = load ptr, ptr %20, align 8, !tbaa !28
  %wide.trip.count = zext nneg i32 %.val47 to i64
  br label %21

21:                                               ; preds = %.lr.ph, %42
  %indvars.iv = phi i64 [ 0, %.lr.ph ], [ %indvars.iv.next, %42 ]
  %22 = getelementptr inbounds nuw ptr, ptr %.val49, i64 %indvars.iv
  %23 = load ptr, ptr %22, align 8, !tbaa !43
  %24 = icmp eq ptr %23, null
  br i1 %24, label %42, label %25

25:                                               ; preds = %21
  %26 = getelementptr i8, ptr %23, i64 24
  %.val55 = load i64, ptr %26, align 8
  %27 = trunc i64 %.val55 to i32
  %28 = and i32 %27, 7
  %29 = add nsw i32 %28, -7
  %narrow.i = icmp ult i32 %29, -2
  br i1 %narrow.i, label %42, label %30

30:                                               ; preds = %25
  %31 = getelementptr i8, ptr %23, i64 8
  %.val56 = load ptr, ptr %31, align 8, !tbaa !69
  %32 = ptrtoint ptr %.val56 to i64
  %33 = and i64 %32, -2
  %34 = inttoptr i64 %33 to ptr
  %35 = icmp eq ptr %9, %34
  br i1 %35, label %36, label %42

36:                                               ; preds = %30
  %37 = getelementptr i8, ptr %23, i64 16
  %.val58 = load ptr, ptr %37, align 8, !tbaa !70
  %38 = ptrtoint ptr %.val58 to i64
  %39 = and i64 %38, -2
  %40 = inttoptr i64 %39 to ptr
  %41 = icmp eq ptr %15, %40
  br i1 %41, label %.critedge, label %42

42:                                               ; preds = %25, %21, %36, %30
  %indvars.iv.next = add nuw nsw i64 %indvars.iv, 1
  %exitcond.not = icmp eq i64 %indvars.iv.next, %wide.trip.count
  br i1 %exitcond.not, label %._crit_edge, label %21, !llvm.loop !77

._crit_edge:                                      ; preds = %42, %2
  %puts46 = tail call i32 @puts(ptr nonnull dereferenceable(1) @str.5)
  br label %69

.critedge:                                        ; preds = %36
  %puts = tail call i32 @puts(ptr nonnull dereferenceable(1) @str.1)
  tail call void @Aig_ObjPrint(ptr noundef nonnull %0, ptr noundef %9) #21
  %putchar = tail call i32 @putchar(i32 10)
  %puts39 = tail call i32 @puts(ptr nonnull dereferenceable(1) @str.2)
  tail call void @Aig_ObjPrint(ptr noundef nonnull %0, ptr noundef %15) #21
  %putchar40 = tail call i32 @putchar(i32 10)
  %puts41 = tail call i32 @puts(ptr nonnull dereferenceable(1) @str.3)
  tail call void @Aig_ObjPrint(ptr noundef nonnull %0, ptr noundef nonnull %23) #21
  %putchar42 = tail call i32 @putchar(i32 10)
  %puts43 = tail call i32 @puts(ptr nonnull dereferenceable(1) @str.4)
  %43 = load ptr, ptr %16, align 8, !tbaa !68
  %44 = getelementptr i8, ptr %43, i64 4
  %.val64 = load i32, ptr %44, align 4, !tbaa !25
  %45 = icmp sgt i32 %.val64, 0
  br i1 %45, label %.lr.ph66, label %.critedge2

.lr.ph66:                                         ; preds = %.critedge, %64
  %46 = phi ptr [ %65, %64 ], [ %43, %.critedge ]
  %indvars.iv69 = phi i64 [ %indvars.iv.next70, %64 ], [ 0, %.critedge ]
  %47 = getelementptr i8, ptr %46, i64 8
  %.val48 = load ptr, ptr %47, align 8, !tbaa !28
  %48 = getelementptr inbounds nuw ptr, ptr %.val48, i64 %indvars.iv69
  %49 = load ptr, ptr %48, align 8, !tbaa !43
  %50 = icmp eq ptr %49, null
  br i1 %50, label %64, label %51

51:                                               ; preds = %.lr.ph66
  %52 = getelementptr i8, ptr %49, i64 8
  %.val57 = load ptr, ptr %52, align 8, !tbaa !69
  %53 = ptrtoint ptr %.val57 to i64
  %54 = and i64 %53, -2
  %55 = inttoptr i64 %54 to ptr
  %56 = icmp eq ptr %23, %55
  br i1 %56, label %63, label %57

57:                                               ; preds = %51
  %58 = getelementptr i8, ptr %49, i64 16
  %.val59 = load ptr, ptr %58, align 8, !tbaa !70
  %59 = ptrtoint ptr %.val59 to i64
  %60 = and i64 %59, -2
  %61 = inttoptr i64 %60 to ptr
  %62 = icmp eq ptr %23, %61
  br i1 %62, label %63, label %64

63:                                               ; preds = %57, %51
  tail call void @Aig_ObjPrint(ptr noundef nonnull %0, ptr noundef nonnull %49) #21
  %putchar45 = tail call i32 @putchar(i32 10)
  %.pre = load ptr, ptr %16, align 8, !tbaa !68
  br label %64

64:                                               ; preds = %.lr.ph66, %63, %57
  %65 = phi ptr [ %46, %.lr.ph66 ], [ %.pre, %63 ], [ %46, %57 ]
  %indvars.iv.next70 = add nuw nsw i64 %indvars.iv69, 1
  %66 = getelementptr i8, ptr %65, i64 4
  %.val = load i32, ptr %66, align 4, !tbaa !25
  %67 = sext i32 %.val to i64
  %68 = icmp slt i64 %indvars.iv.next70, %67
  br i1 %68, label %.lr.ph66, label %.critedge2, !llvm.loop !78

.critedge2:                                       ; preds = %64, %.critedge
  %putchar44 = tail call i32 @putchar(i32 10)
  br label %69

69:                                               ; preds = %.critedge2, %._crit_edge
  ret void
}